(lp0
(lp1
I0
aI0
aI0
aI0
aI0
aI0
aI0
aI0
aI0
aI0
aI0
aI0
aI0
aI0
aI0
aI0
aI0
aI0
aI0
aa(lp2
F3.0999999999999996
aF1.0
aF0.1
aF0.2
aF0.0
aF0.0
aF3.3000000000000007
aF0.2
aF1.7
aF0.8
aF5.1000000000000005
aF0.2
aF1.0
aF0.5
aF0.4
aF0.0
aF6.9
aF0.8
aF0.0
aa(lp3
F4.2
aF4.1000000000000005
aF0.9
aF4.4
aF0.0
aF0.0
aF3.9999999999999996
aF1.2
aF3.0999999999999996
aF0.0
aF7.900000000000001
aF0.0
aF2.4000000000000004
aF1.9
aF3.4
aF0.0
aF5.1000000000000005
aF0.0
aF0.0
aa(lp4
F0.0
aF4.2
aF0.0
aF0.0
aF0.0
aF0.0
aF3.9999999999999996
aF0.9
aF5.1000000000000005
aF0.0
aF0.3
aF0.0
aF0.0
aF5.800000000000001
aF0.0
aF0.0
aF0.7
aF0.0
aF0.0
aa(lp5
I0
aI0
aI0
aI0
aI0
aI0
aI0
aI0
aI0
aI0
aI0
aI0
aI0
aI0
aI0
aI0
aI0
aI0
aI0
aa(lp6
F4.4
aF6.3
aF3.6
aF2.6
aF0.0
aF0.0
aF2.5
aF5.2
aF4.4
aF0.0
aF0.0
aF0.0
aF0.0
aF4.3
aF0.0
aF0.0
aF0.8
aF0.0
aF0.0
aa(lp7
F1.8
aF0.0
aF0.0
aF0.0
aF0.0
aF0.0
aF2.8
aF0.0
aF0.0
aF2.0
aF0.0
aF0.0
aF0.0
aF0.0
aF0.0
aF0.0
aF2.0
aF2.8
aF0.0
aa(lp8
F1.869
aF1.869
aF0.0
aF0.0
aF0.0
aF0.0
aF0.0
aF0.0
aF0.0
aF0.0
aF0.0
aF0.0
aF0.969
aF0.0
aF1.869
aF0.0
aF1.869
aF0.0
aF0.0
aa.